Certificate:
    Data:
        Version: 3 (0x2)
        Serial Number: 17 (0x11)
        Signature Algorithm: sha256WithRSAEncryption
        Issuer: C=cn, ST=guangxi, L=nanning, O=www, OU=www, CN=lxz/emailAddress=215271461@qq.com
        Validity
            Not Before: Aug 31 12:48:19 2019 GMT
            Not After : Aug 30 12:48:19 2020 GMT
        Subject: C=cn, ST=guangxi, O=www, OU=www, CN=lxz/emailAddress=215271461@qq.com
        Subject Public Key Info:
            Public Key Algorithm: rsaEncryption
                RSA Public-Key: (1024 bit)
                Modulus:
                    00:c3:77:f5:b2:e9:c3:3c:66:e4:67:43:c6:72:66:
                    0b:92:0d:95:54:c4:92:ca:e7:32:2b:32:9e:7d:a9:
                    ff:6e:58:e0:c1:9d:f4:8b:68:1c:a6:96:aa:35:1a:
                    db:2a:05:84:ad:5c:89:82:b6:5b:05:b3:0d:c6:06:
                    1c:75:5e:ff:33:a0:be:8c:9f:6a:ea:af:97:b7:02:
                    c8:55:7c:cd:2f:fe:79:8f:7b:4d:5a:3b:b3:cc:f5:
                    55:ac:84:a2:c0:88:26:67:f4:a2:a6:08:f5:6a:ff:
                    6f:23:3c:b5:1b:3c:4d:f1:6f:e1:08:c8:96:75:99:
                    75:15:8a:ec:4b:30:ef:18:2d
                Exponent: 65537 (0x10001)
        X509v3 extensions:
            X509v3 Basic Constraints: 
                CA:FALSE
            Netscape Comment: 
                OpenSSL Generated Certificate
            X509v3 Subject Key Identifier: 
                8C:87:73:05:B2:16:C7:75:F5:EC:DF:19:4A:0F:E0:89:5A:01:2A:32
            X509v3 Authority Key Identifier: 
                keyid:1E:4D:3C:37:55:11:1B:E3:72:D5:38:C8:D1:39:35:BD:2B:40:56:C9

    Signature Algorithm: sha256WithRSAEncryption
         09:cb:1a:88:43:03:d1:2b:17:3a:32:19:8f:ad:90:c9:c9:81:
         ea:b7:23:27:ca:f5:36:28:39:c9:fd:bd:49:1c:45:f6:e6:54:
         4a:62:3f:85:c7:ef:fc:8f:3e:f4:7c:75:a1:5f:46:8f:fe:e3:
         ab:1f:2d:be:da:e5:7e:64:4e:0d:c7:20:5b:55:f7:53:d5:68:
         5b:22:6b:de:01:e0:5a:ac:37:57:23:80:a9:2b:e7:71:03:48:
         67:a0:e1:9d:84:74:55:61:5a:74:00:6c:56:0e:b7:45:af:18:
         16:a1:77:78:ff:47:d4:7b:7a:93:f7:20:74:ff:09:c5:5a:92:
         a1:50:5d:7d:96:3a:c5:e3:96:2e:0d:9b:21:92:ea:63:b3:00:
         96:02:a7:1c:51:f1:a3:b8:d9:a2:e5:b1:e8:36:ab:94:e4:1f:
         7c:e5:d5:10:9d:ef:12:89:d9:89:57:e8:b6:ff:7d:ee:fa:38:
         f7:35:9d:ee:56:e4:44:c5:33:3a:54:c1:10:d0:ea:ef:31:cd:
         c0:5d:a5:86:90:64:42:cc:f8:cd:d2:bd:cc:87:7b:8c:5c:1c:
         a3:16:25:68:8b:a9:13:99:d2:0a:7d:d8:c1:cd:22:23:0d:3b:
         0b:13:a2:80:8d:16:97:74:38:ed:b5:77:d8:20:34:c0:3e:75:
         53:55:76:79
-----BEGIN CERTIFICATE-----
MIIDWDCCAkCgAwIBAgIBETANBgkqhkiG9w0BAQsFADB8MQswCQYDVQQGEwJjbjEQ
MA4GA1UECAwHZ3Vhbmd4aTEQMA4GA1UEBwwHbmFubmluZzEMMAoGA1UECgwDd3d3
MQwwCgYDVQQLDAN3d3cxDDAKBgNVBAMMA2x4ejEfMB0GCSqGSIb3DQEJARYQMjE1
MjcxNDYxQHFxLmNvbTAeFw0xOTA4MzExMjQ4MTlaFw0yMDA4MzAxMjQ4MTlaMGox
CzAJBgNVBAYTAmNuMRAwDgYDVQQIDAdndWFuZ3hpMQwwCgYDVQQKDAN3d3cxDDAK
BgNVBAsMA3d3dzEMMAoGA1UEAwwDbHh6MR8wHQYJKoZIhvcNAQkBFhAyMTUyNzE0
NjFAcXEuY29tMIGfMA0GCSqGSIb3DQEBAQUAA4GNADCBiQKBgQDDd/Wy6cM8ZuRn
Q8ZyZguSDZVUxJLK5zIrMp59qf9uWODBnfSLaBymlqo1GtsqBYStXImCtlsFsw3G
Bhx1Xv8zoL6Mn2rqr5e3AshVfM0v/nmPe01aO7PM9VWshKLAiCZn9KKmCPVq/28j
PLUbPE3xb+EIyJZ1mXUViuxLMO8YLQIDAQABo3sweTAJBgNVHRMEAjAAMCwGCWCG
SAGG+EIBDQQfFh1PcGVuU1NMIEdlbmVyYXRlZCBDZXJ0aWZpY2F0ZTAdBgNVHQ4E
FgQUjIdzBbIWx3X17N8ZSg/giVoBKjIwHwYDVR0jBBgwFoAUHk08N1URG+Ny1TjI
0Tk1vStAVskwDQYJKoZIhvcNAQELBQADggEBAAnLGohDA9ErFzoyGY+tkMnJgeq3
IyfK9TYoOcn9vUkcRfbmVEpiP4XH7/yPPvR8daFfRo/+46sfLb7a5X5kTg3HIFtV
91PVaFsia94B4FqsN1cjgKkr53EDSGeg4Z2EdFVhWnQAbFYOt0WvGBahd3j/R9R7
epP3IHT/CcVakqFQXX2WOsXjli4NmyGS6mOzAJYCpxxR8aO42aLlseg2q5TkH3zl
1RCd7xKJ2YlX6Lb/fe76OPc1ne5W5ETFMzpUwRDQ6u8xzcBdpYaQZELM+M3SvcyH
e4xcHKMWJWiLqROZ0gp92MHNIiMNOwsTooCNFpd0OO21d9ggNMA+dVNVdnk=
-----END CERTIFICATE-----
